target datalayout = "e-m:e-p270:32:32-p271:32:32-p272:64:64-i64:64-i128:128-f80:128-n8:16:32:64-S128"
target triple = "x86_64-pc-linux-gnu"

@hf_openflow_v6_flow_stats_request_table_id = internal global i32 0, align 4
@hf_openflow_v6_flow_stats_request_pad = internal global i32 0, align 4
@hf_openflow_v6_flow_stats_request_out_port = internal global i32 0, align 4
@hf_openflow_v6_flow_stats_request_out_group = internal global i32 0, align 4
@hf_openflow_v6_flow_stats_request_pad2 = internal global i32 0, align 4
@hf_openflow_v6_flow_stats_request_cookie = internal global i32 0, align 4
@hf_openflow_v6_flow_stats_request_cookie_mask = internal global i32 0, align 4

; Function Attrs: null_pointer_is_valid sspstrong uwtable
define internal void @dissect_openflow_flow_stats_request_v6(ptr noundef %0, ptr noundef %1, ptr noundef %2, i32 noundef %3, i16 noundef zeroext %4) #0 {
  %6 = alloca ptr, align 8
  %7 = alloca ptr, align 8
  %8 = alloca ptr, align 8
  %9 = alloca i32, align 4
  %10 = alloca i16, align 2
  store ptr %0, ptr %6, align 8
  store ptr %1, ptr %7, align 8
  store ptr %2, ptr %8, align 8
  store i32 %3, ptr %9, align 4
  store i16 %4, ptr %10, align 2
  %11 = load ptr, ptr %8, align 8
  %12 = load i32, ptr @hf_openflow_v6_flow_stats_request_table_id, align 4
  %13 = load ptr, ptr %6, align 8
  %14 = load i32, ptr %9, align 4
  %15 = call ptr @proto_tree_add_item(ptr noundef %11, i32 noundef %12, ptr noundef %13, i32 noundef %14, i32 noundef 1, i32 noundef 0)
  %16 = load i32, ptr %9, align 4
  %17 = add i32 %16, 1
  store i32 %17, ptr %9, align 4
  %18 = load ptr, ptr %8, align 8
  %19 = load i32, ptr @hf_openflow_v6_flow_stats_request_pad, align 4
  %20 = load ptr, ptr %6, align 8
  %21 = load i32, ptr %9, align 4
  %22 = call ptr @proto_tree_add_item(ptr noundef %18, i32 noundef %19, ptr noundef %20, i32 noundef %21, i32 noundef 3, i32 noundef 0)
  %23 = load i32, ptr %9, align 4
  %24 = add i32 %23, 3
  store i32 %24, ptr %9, align 4
  %25 = load ptr, ptr %8, align 8
  %26 = load i32, ptr @hf_openflow_v6_flow_stats_request_out_port, align 4
  %27 = load ptr, ptr %6, align 8
  %28 = load i32, ptr %9, align 4
  %29 = call ptr @proto_tree_add_item(ptr noundef %25, i32 noundef %26, ptr noundef %27, i32 noundef %28, i32 noundef 4, i32 noundef 0)
  %30 = load i32, ptr %9, align 4
  %31 = add i32 %30, 4
  store i32 %31, ptr %9, align 4
  %32 = load ptr, ptr %8, align 8
  %33 = load i32, ptr @hf_openflow_v6_flow_stats_request_out_group, align 4
  %34 = load ptr, ptr %6, align 8
  %35 = load i32, ptr %9, align 4
  %36 = call ptr @proto_tree_add_item(ptr noundef %32, i32 noundef %33, ptr noundef %34, i32 noundef %35, i32 noundef 4, i32 noundef 0)
  %37 = load i32, ptr %9, align 4
  %38 = add i32 %37, 4
  store i32 %38, ptr %9, align 4
  %39 = load ptr, ptr %8, align 8
  %40 = load i32, ptr @hf_openflow_v6_flow_stats_request_pad2, align 4
  %41 = load ptr, ptr %6, align 8
  %42 = load i32, ptr %9, align 4
  %43 = call ptr @proto_tree_add_item(ptr noundef %39, i32 noundef %40, ptr noundef %41, i32 noundef %42, i32 noundef 4, i32 noundef 0)
  %44 = load i32, ptr %9, align 4
  %45 = add i32 %44, 4
  store i32 %45, ptr %9, align 4
  %46 = load ptr, ptr %8, align 8
  %47 = load i32, ptr @hf_openflow_v6_flow_stats_request_cookie, align 4
  %48 = load ptr, ptr %6, align 8
  %49 = load i32, ptr %9, align 4
  %50 = call ptr @proto_tree_add_item(ptr noundef %46, i32 noundef %47, ptr noundef %48, i32 noundef %49, i32 noundef 8, i32 noundef 0)
  %51 = load i32, ptr %9, align 4
  %52 = add i32 %51, 8
  store i32 %52, ptr %9, align 4
  %53 = load ptr, ptr %8, align 8
  %54 = load i32, ptr @hf_openflow_v6_flow_stats_request_cookie_mask, align 4
  %55 = load ptr, ptr %6, align 8
  %56 = load i32, ptr %9, align 4
  %57 = call ptr @proto_tree_add_item(ptr noundef %53, i32 noundef %54, ptr noundef %55, i32 noundef %56, i32 noundef 8, i32 noundef 0)
  %58 = load i32, ptr %9, align 4
  %59 = add i32 %58, 8
  store i32 %59, ptr %9, align 4
  %60 = load ptr, ptr %6, align 8
  %61 = load ptr, ptr %7, align 8
  %62 = load ptr, ptr %8, align 8
  %63 = load i32, ptr %9, align 4
  %64 = load i16, ptr %10, align 2
  %65 = call i32 @dissect_openflow_match_v6(ptr noundef %60, ptr noundef %61, ptr noundef %62, i32 noundef %63, i16 noundef zeroext %64)
  ret void
}