; Function Attrs: null_pointer_is_valid sspstrong uwtable
define internal fastcc void @dissect_openflow_flow_stats_request_v6(ptr noundef %0, ptr noundef %1, ptr noundef %2, i32 noundef %3) unnamed_addr #0 {
  %5 = load i32, ptr @hf_openflow_v6_flow_stats_request_table_id, align 4
  %6 = tail call ptr @proto_tree_add_item(ptr noundef %2, i32 noundef %5, ptr noundef %0, i32 noundef %3, i32 noundef 1, i32 noundef 0)
  %7 = add i32 %3, 1
  %8 = load i32, ptr @hf_openflow_v6_flow_stats_request_pad, align 4
  %9 = tail call ptr @proto_tree_add_item(ptr noundef %2, i32 noundef %8, ptr noundef %0, i32 noundef %7, i32 noundef 3, i32 noundef 0)
  %10 = add i32 %3, 4
  %11 = load i32, ptr @hf_openflow_v6_flow_stats_request_out_port, align 4
  %12 = tail call ptr @proto_tree_add_item(ptr noundef %2, i32 noundef %11, ptr noundef %0, i32 noundef %10, i32 noundef 4, i32 noundef 0)
  %13 = add i32 %3, 8
  %14 = load i32, ptr @hf_openflow_v6_flow_stats_request_out_group, align 4
  %15 = tail call ptr @proto_tree_add_item(ptr noundef %2, i32 noundef %14, ptr noundef %0, i32 noundef %13, i32 noundef 4, i32 noundef 0)
  %16 = add i32 %3, 12
  %17 = load i32, ptr @hf_openflow_v6_flow_stats_request_pad2, align 4
  %18 = tail call ptr @proto_tree_add_item(ptr noundef %2, i32 noundef %17, ptr noundef %0, i32 noundef %16, i32 noundef 4, i32 noundef 0)
  %19 = add i32 %3, 16
  %20 = load i32, ptr @hf_openflow_v6_flow_stats_request_cookie, align 4
  %21 = tail call ptr @proto_tree_add_item(ptr noundef %2, i32 noundef %20, ptr noundef %0, i32 noundef %19, i32 noundef 8, i32 noundef 0)
  %22 = add i32 %3, 24
  %23 = load i32, ptr @hf_openflow_v6_flow_stats_request_cookie_mask, align 4
  %24 = tail call ptr @proto_tree_add_item(ptr noundef %2, i32 noundef %23, ptr noundef %0, i32 noundef %22, i32 noundef 8, i32 noundef 0)
  %25 = add i32 %3, 32
  %26 = tail call fastcc i32 @dissect_openflow_match_v6(ptr noundef %0, ptr noundef %1, ptr noundef %2, i32 noundef %25)
  ret void
}